target datalayout = "e-m:e-p270:32:32-p271:32:32-p272:64:64-i64:64-i128:128-f80:128-n8:16:32:64-S128"
target triple = "x86_64-pc-linux-gnu"

%"class.icu_77::UObject" = type { ptr }
%"class.icu_77::UnicodeString" = type { %"class.icu_77::Replaceable", %"union.icu_77::UnicodeString::StackBufferOrFields" }
%"class.icu_77::Replaceable" = type { %"class.icu_77::UObject" }
%"union.icu_77::UnicodeString::StackBufferOrFields" = type { %struct.anon.0, [32 x i8] }
%struct.anon.0 = type { i16, i32, i32, ptr }

@_ZN6icu_7713SimpleFactoryC1EPNS_7UObjectERKNS_13UnicodeStringEa = unnamed_addr alias void (ptr, ptr, ptr, i8), ptr @_ZN6icu_7713SimpleFactoryC2EPNS_7UObjectERKNS_13UnicodeStringEa

; Function Attrs: inlinehint mustprogress nounwind uwtable
define linkonce_odr noundef signext i8 @_ZNK6icu_7713UnicodeString7isBogusEv(ptr noundef nonnull align 8 dereferenceable(64) %0) #1 comdat align 2 {
  %2 = alloca ptr, align 8
  store ptr %0, ptr %2, align 8, !tbaa !8
  %3 = load ptr, ptr %2, align 8
  %4 = getelementptr inbounds nuw %"class.icu_77::UnicodeString", ptr %3, i32 0, i32 1
  %5 = getelementptr inbounds nuw %struct.anon.0, ptr %4, i32 0, i32 0
  %6 = load i16, ptr %5, align 8, !tbaa !22
  %7 = sext i16 %6 to i32
  %8 = and i32 %7, 1
  %9 = trunc i32 %8 to i8
  ret i8 %9
}

; Function Attrs: inlinehint mustprogress nounwind uwtable
define internal noundef signext i8 @_ZL9U_SUCCESS10UErrorCode(i32 noundef %0) #1 {
  %2 = alloca i32, align 4
  store i32 %0, ptr %2, align 4, !tbaa !33
  %3 = load i32, ptr %2, align 4, !tbaa !33
  %4 = icmp sle i32 %3, 0
  %5 = zext i1 %4 to i8
  ret i8 %5
}

; Function Attrs: mustprogress uwtable
define noundef ptr @_ZN6icu_7710ICUService19createSimpleFactoryEPNS_7UObjectERKNS_13UnicodeStringEaR10UErrorCode(ptr noundef nonnull align 8 dereferenceable(120) %0, ptr noundef %1, ptr noundef nonnull align 8 dereferenceable(64) %2, i8 noundef signext %3, ptr noundef nonnull align 4 dereferenceable(4) %4) unnamed_addr #0 align 2 personality ptr @__gxx_personality_v0 {
  %6 = alloca ptr, align 8
  %7 = alloca ptr, align 8
  %8 = alloca ptr, align 8
  %9 = alloca ptr, align 8
  %10 = alloca i8, align 1
  %11 = alloca ptr, align 8
  %12 = alloca ptr, align 8
  %13 = alloca i1, align 1
  %14 = alloca ptr, align 8
  %15 = alloca i32, align 4
  store ptr %0, ptr %7, align 8, !tbaa !30
  store ptr %1, ptr %8, align 8, !tbaa !12
  store ptr %2, ptr %9, align 8, !tbaa !8
  store i8 %3, ptr %10, align 1, !tbaa !22
  store ptr %4, ptr %11, align 8, !tbaa !32
  %16 = load ptr, ptr %11, align 8, !tbaa !32
  %17 = load i32, ptr %16, align 4, !tbaa !33
  %18 = call noundef signext i8 @_ZL9U_SUCCESS10UErrorCode(i32 noundef %17)
  %19 = icmp ne i8 %18, 0
  br i1 %19, label %20, label %47

20:                                               ; preds = %5
  %21 = load ptr, ptr %8, align 8, !tbaa !12
  %22 = icmp ne ptr %21, null
  br i1 %22, label %23, label %45

23:                                               ; preds = %20
  %24 = load ptr, ptr %9, align 8, !tbaa !8
  %25 = call noundef signext i8 @_ZNK6icu_7713UnicodeString7isBogusEv(ptr noundef nonnull align 8 dereferenceable(64) %24)
  %26 = icmp ne i8 %25, 0
  br i1 %26, label %45, label %27

27:                                               ; preds = %23
  %28 = call noundef ptr @_ZN6icu_777UMemorynwEm(i64 noundef 88) #10
  %29 = icmp eq ptr %28, null
  store i1 false, ptr %13, align 1
  br i1 %29, label %35, label %30

30:                                               ; preds = %27
  store ptr %28, ptr %12, align 8
  store i1 true, ptr %13, align 1
  %31 = load ptr, ptr %8, align 8, !tbaa !12
  %32 = load ptr, ptr %9, align 8, !tbaa !8
  %33 = load i8, ptr %10, align 1, !tbaa !22
  invoke void @_ZN6icu_7713SimpleFactoryC1EPNS_7UObjectERKNS_13UnicodeStringEa(ptr noundef nonnull align 8 dereferenceable(81) %28, ptr noundef %31, ptr noundef nonnull align 8 dereferenceable(64) %32, i8 noundef signext %33)
          to label %34 unwind label %37

34:                                               ; preds = %30
  br label %35

35:                                               ; preds = %34, %27
  %36 = phi ptr [ %28, %34 ], [ null, %27 ]
  store ptr %36, ptr %6, align 8
  br label %48

37:                                               ; preds = %30
  %38 = landingpad { ptr, i32 }
          cleanup
  %39 = extractvalue { ptr, i32 } %38, 0
  store ptr %39, ptr %14, align 8
  %40 = extractvalue { ptr, i32 } %38, 1
  store i32 %40, ptr %15, align 4
  %41 = load i1, ptr %13, align 1
  br i1 %41, label %42, label %44

42:                                               ; preds = %37
  %43 = load ptr, ptr %12, align 8
  call void @_ZN6icu_777UMemorydlEPv(ptr noundef %43) #10
  br label %44

44:                                               ; preds = %42, %37
  br label %50

45:                                               ; preds = %23, %20
  %46 = load ptr, ptr %11, align 8, !tbaa !32
  store i32 1, ptr %46, align 4, !tbaa !33
  br label %47

47:                                               ; preds = %45, %5
  store ptr null, ptr %6, align 8
  br label %48

48:                                               ; preds = %47, %35
  %49 = load ptr, ptr %6, align 8
  ret ptr %49

50:                                               ; preds = %44
  %51 = load ptr, ptr %14, align 8
  %52 = load i32, ptr %15, align 4
  %53 = insertvalue { ptr, i32 } poison, ptr %51, 0
  %54 = insertvalue { ptr, i32 } %53, i32 %52, 1
  resume { ptr, i32 } %54
}