; Function Attrs: mustprogress uwtable
define noundef ptr @_ZN6icu_7710ICUService19createSimpleFactoryEPNS_7UObjectERKNS_13UnicodeStringEaR10UErrorCode(ptr nonnull readnone align 8 captures(none) %0, ptr noundef %1, ptr noundef nonnull align 8 dereferenceable(64) %2, i8 noundef signext %3, ptr noundef nonnull align 4 captures(none) dereferenceable(4) %4) unnamed_addr #0 align 2 personality ptr @__gxx_personality_v0 {
  %6 = load i32, ptr %4, align 4, !tbaa !19
  %7 = icmp sgt i32 %6, 0
  br i1 %7, label %20, label %8

8:                                                ; preds = %5
  %.not13 = icmp eq ptr %1, null
  br i1 %.not13, label %19, label %9

9:                                                ; preds = %8
  %10 = getelementptr inbounds nuw i8, ptr %2, i64 8
  %11 = load i16, ptr %10, align 8, !tbaa !6
  %12 = and i16 %11, 1
  %.not14 = icmp eq i16 %12, 0
  br i1 %.not14, label %13, label %19

13:                                               ; preds = %9
  %14 = tail call noundef ptr @_ZN6icu_777UMemorynwEm(i64 noundef 88) #17
  %15 = icmp eq ptr %14, null
  br i1 %15, label %20, label %16

16:                                               ; preds = %13
  invoke void @_ZN6icu_7713SimpleFactoryC1EPNS_7UObjectERKNS_13UnicodeStringEa(ptr noundef nonnull align 8 dereferenceable(81) %14, ptr noundef nonnull %1, ptr noundef nonnull align 8 dereferenceable(64) %2, i8 noundef signext %3)
          to label %20 unwind label %17

17:                                               ; preds = %16
  %18 = landingpad { ptr, i32 }
          cleanup
  tail call void @_ZN6icu_777UMemorydlEPv(ptr noundef nonnull %14) #17
  resume { ptr, i32 } %18

19:                                               ; preds = %9, %8
  store i32 1, ptr %4, align 4, !tbaa !19
  br label %20

20:                                               ; preds = %5, %19, %13, %16
  %.0 = phi ptr [ null, %13 ], [ %14, %16 ], [ null, %19 ], [ null, %5 ]
  ret ptr %.0
}